target datalayout = "e-m:e-p270:32:32-p271:32:32-p272:64:64-i64:64-i128:128-f80:128-n8:16:32:64-S128"
target triple = "x86_64-pc-linux-gnu"

%struct.SDL_GUID = type { [16 x i8] }
%struct.SDL_Gamepad = type { ptr, i32, ptr, i32, i32, ptr, i32, ptr, ptr, ptr, i64, ptr }
%struct.SDL_Joystick = type { i32, ptr, ptr, ptr, %struct.SDL_GUID, i16, i64, i8, i8, i32, ptr, i32, ptr, i32, ptr, i32, ptr, i32, ptr, i32, i32, ptr, i16, i16, i64, i64, i16, i16, i64, i64, i8, i8, i8, i64, i8, i32, i32, i32, i8, i32, ptr, i32, ptr, [3 x [3 x float]], i64, ptr, ptr, i32, i32, ptr }

@SDL_gamepads = internal global ptr null, align 8

; Function Attrs: nounwind uwtable
define internal void @AdjustSensorOrientation(ptr noundef %0, ptr noundef %1, ptr noundef %2) #0 {
  %4 = alloca ptr, align 8
  %5 = alloca ptr, align 8
  %6 = alloca ptr, align 8
  %7 = alloca i32, align 4
  %8 = alloca i32, align 4
  store ptr %0, ptr %4, align 8
  store ptr %1, ptr %5, align 8
  store ptr %2, ptr %6, align 8
  call void @llvm.lifetime.start.p0(i64 4, ptr %7) #8
  call void @llvm.lifetime.start.p0(i64 4, ptr %8) #8
  call void @SDL_AssertJoysticksLocked()
  store i32 0, ptr %7, align 4
  br label %9

9:                                                ; preds = %45, %3
  %10 = load i32, ptr %7, align 4
  %11 = icmp ult i32 %10, 3
  br i1 %11, label %12, label %48

12:                                               ; preds = %9
  %13 = load ptr, ptr %6, align 8
  %14 = load i32, ptr %7, align 4
  %15 = zext i32 %14 to i64
  %16 = getelementptr inbounds nuw float, ptr %13, i64 %15
  store float 0.000000e+00, ptr %16, align 4
  store i32 0, ptr %8, align 4
  br label %17

17:                                               ; preds = %41, %12
  %18 = load i32, ptr %8, align 4
  %19 = icmp ult i32 %18, 3
  br i1 %19, label %20, label %44

20:                                               ; preds = %17
  %21 = load ptr, ptr %4, align 8
  %22 = getelementptr inbounds nuw %struct.SDL_Joystick, ptr %21, i32 0, i32 43
  %23 = load i32, ptr %7, align 4
  %24 = zext i32 %23 to i64
  %25 = getelementptr inbounds nuw [3 x [3 x float]], ptr %22, i64 0, i64 %24
  %26 = load i32, ptr %8, align 4
  %27 = zext i32 %26 to i64
  %28 = getelementptr inbounds nuw [3 x float], ptr %25, i64 0, i64 %27
  %29 = load float, ptr %28, align 4
  %30 = load ptr, ptr %5, align 8
  %31 = load i32, ptr %8, align 4
  %32 = zext i32 %31 to i64
  %33 = getelementptr inbounds nuw float, ptr %30, i64 %32
  %34 = load float, ptr %33, align 4
  %35 = load ptr, ptr %6, align 8
  %36 = load i32, ptr %7, align 4
  %37 = zext i32 %36 to i64
  %38 = getelementptr inbounds nuw float, ptr %35, i64 %37
  %39 = load float, ptr %38, align 4
  %40 = call float @llvm.fmuladd.f32(float %29, float %34, float %39)
  store float %40, ptr %38, align 4
  br label %41

41:                                               ; preds = %20
  %42 = load i32, ptr %8, align 4
  %43 = add i32 %42, 1
  store i32 %43, ptr %8, align 4
  br label %17, !llvm.loop !10

44:                                               ; preds = %17
  br label %45

45:                                               ; preds = %44
  %46 = load i32, ptr %7, align 4
  %47 = add i32 %46, 1
  store i32 %47, ptr %7, align 4
  br label %9, !llvm.loop !11

48:                                               ; preds = %9
  call void @llvm.lifetime.end.p0(i64 4, ptr %8) #8
  call void @llvm.lifetime.end.p0(i64 4, ptr %7) #8
  ret void
}

; Function Attrs: nounwind uwtable
define hidden void @SDL_GamepadSensorWatcher(i64 noundef %0, i32 noundef %1, i64 noundef %2, ptr noundef %3, i32 noundef %4) #0 {
  %6 = alloca i64, align 8
  %7 = alloca i32, align 4
  %8 = alloca i64, align 8
  %9 = alloca ptr, align 8
  %10 = alloca i32, align 4
  %11 = alloca ptr, align 8
  %12 = alloca [3 x float], align 4
  %13 = alloca [3 x float], align 4
  store i64 %0, ptr %6, align 8
  store i32 %1, ptr %7, align 4
  store i64 %2, ptr %8, align 8
  store ptr %3, ptr %9, align 8
  store i32 %4, ptr %10, align 4
  call void @llvm.lifetime.start.p0(i64 8, ptr %11) #8
  call void @SDL_LockJoysticks_REAL()
  %14 = load ptr, ptr @SDL_gamepads, align 8
  store ptr %14, ptr %11, align 8
  br label %15

15:                                               ; preds = %73, %5
  %16 = load ptr, ptr %11, align 8
  %17 = icmp ne ptr %16, null
  br i1 %17, label %18, label %77

18:                                               ; preds = %15
  %19 = load ptr, ptr %11, align 8
  %20 = getelementptr inbounds nuw %struct.SDL_Gamepad, ptr %19, i32 0, i32 0
  %21 = load ptr, ptr %20, align 8
  %22 = getelementptr inbounds nuw %struct.SDL_Joystick, ptr %21, i32 0, i32 40
  %23 = load ptr, ptr %22, align 8
  %24 = icmp ne ptr %23, null
  br i1 %24, label %25, label %45

25:                                               ; preds = %18
  %26 = load ptr, ptr %11, align 8
  %27 = getelementptr inbounds nuw %struct.SDL_Gamepad, ptr %26, i32 0, i32 0
  %28 = load ptr, ptr %27, align 8
  %29 = getelementptr inbounds nuw %struct.SDL_Joystick, ptr %28, i32 0, i32 39
  %30 = load i32, ptr %29, align 4
  %31 = load i32, ptr %7, align 4
  %32 = icmp eq i32 %30, %31
  br i1 %32, label %33, label %45

33:                                               ; preds = %25
  call void @llvm.lifetime.start.p0(i64 12, ptr %12) #8
  %34 = load ptr, ptr %11, align 8
  %35 = getelementptr inbounds nuw %struct.SDL_Gamepad, ptr %34, i32 0, i32 0
  %36 = load ptr, ptr %35, align 8
  %37 = load ptr, ptr %9, align 8
  %38 = getelementptr inbounds [3 x float], ptr %12, i64 0, i64 0
  call void @AdjustSensorOrientation(ptr noundef %36, ptr noundef %37, ptr noundef %38)
  %39 = load i64, ptr %6, align 8
  %40 = load ptr, ptr %11, align 8
  %41 = getelementptr inbounds nuw %struct.SDL_Gamepad, ptr %40, i32 0, i32 0
  %42 = load ptr, ptr %41, align 8
  %43 = load i64, ptr %8, align 8
  %44 = getelementptr inbounds [3 x float], ptr %12, i64 0, i64 0
  call void @SDL_SendJoystickSensor(i64 noundef %39, ptr noundef %42, i32 noundef 1, i64 noundef %43, ptr noundef %44, i32 noundef 3)
  call void @llvm.lifetime.end.p0(i64 12, ptr %12) #8
  br label %45

45:                                               ; preds = %33, %25, %18
  %46 = load ptr, ptr %11, align 8
  %47 = getelementptr inbounds nuw %struct.SDL_Gamepad, ptr %46, i32 0, i32 0
  %48 = load ptr, ptr %47, align 8
  %49 = getelementptr inbounds nuw %struct.SDL_Joystick, ptr %48, i32 0, i32 42
  %50 = load ptr, ptr %49, align 8
  %51 = icmp ne ptr %50, null
  br i1 %51, label %52, label %72

52:                                               ; preds = %45
  %53 = load ptr, ptr %11, align 8
  %54 = getelementptr inbounds nuw %struct.SDL_Gamepad, ptr %53, i32 0, i32 0
  %55 = load ptr, ptr %54, align 8
  %56 = getelementptr inbounds nuw %struct.SDL_Joystick, ptr %55, i32 0, i32 41
  %57 = load i32, ptr %56, align 8
  %58 = load i32, ptr %7, align 4
  %59 = icmp eq i32 %57, %58
  br i1 %59, label %60, label %72

60:                                               ; preds = %52
  call void @llvm.lifetime.start.p0(i64 12, ptr %13) #8
  %61 = load ptr, ptr %11, align 8
  %62 = getelementptr inbounds nuw %struct.SDL_Gamepad, ptr %61, i32 0, i32 0
  %63 = load ptr, ptr %62, align 8
  %64 = load ptr, ptr %9, align 8
  %65 = getelementptr inbounds [3 x float], ptr %13, i64 0, i64 0
  call void @AdjustSensorOrientation(ptr noundef %63, ptr noundef %64, ptr noundef %65)
  %66 = load i64, ptr %6, align 8
  %67 = load ptr, ptr %11, align 8
  %68 = getelementptr inbounds nuw %struct.SDL_Gamepad, ptr %67, i32 0, i32 0
  %69 = load ptr, ptr %68, align 8
  %70 = load i64, ptr %8, align 8
  %71 = getelementptr inbounds [3 x float], ptr %13, i64 0, i64 0
  call void @SDL_SendJoystickSensor(i64 noundef %66, ptr noundef %69, i32 noundef 2, i64 noundef %70, ptr noundef %71, i32 noundef 3)
  call void @llvm.lifetime.end.p0(i64 12, ptr %13) #8
  br label %72

72:                                               ; preds = %60, %52, %45
  br label %73

73:                                               ; preds = %72
  %74 = load ptr, ptr %11, align 8
  %75 = getelementptr inbounds nuw %struct.SDL_Gamepad, ptr %74, i32 0, i32 11
  %76 = load ptr, ptr %75, align 8
  store ptr %76, ptr %11, align 8
  br label %15, !llvm.loop !9

77:                                               ; preds = %15
  call void @SDL_UnlockJoysticks_REAL()
  call void @llvm.lifetime.end.p0(i64 8, ptr %11) #8
  ret void
}