; Function Attrs: nounwind uwtable
define hidden void @SDL_GamepadSensorWatcher(i64 noundef %0, i32 noundef %1, i64 noundef %2, ptr noundef readonly captures(none) %3, i32 noundef %4) local_unnamed_addr #0 {
  %6 = alloca [3 x float], align 4
  %7 = alloca [3 x float], align 4
  tail call void @SDL_LockJoysticks_REAL() #10
  %.026 = load ptr, ptr @SDL_gamepads, align 8
  %.not27 = icmp eq ptr %.026, null
  br i1 %.not27, label %._crit_edge, label %.lr.ph

.lr.ph:                                           ; preds = %5, %49
  %.028 = phi ptr [ %.0, %49 ], [ %.026, %5 ]
  %8 = load ptr, ptr %.028, align 8
  %9 = getelementptr inbounds nuw i8, ptr %8, i64 248
  %10 = load ptr, ptr %9, align 8
  %.not17 = icmp eq ptr %10, null
  br i1 %.not17, label %28, label %11

11:                                               ; preds = %.lr.ph
  %12 = getelementptr inbounds nuw i8, ptr %8, i64 244
  %13 = load i32, ptr %12, align 4
  %14 = icmp eq i32 %13, %1
  br i1 %14, label %15, label %28

15:                                               ; preds = %11
  call void @llvm.lifetime.start.p0(i64 12, ptr nonnull %6) #10
  call void @SDL_AssertJoysticksLocked() #10
  %16 = getelementptr inbounds nuw i8, ptr %8, i64 272
  br label %17

17:                                               ; preds = %26, %15
  %indvars.iv16.i = phi i64 [ 0, %15 ], [ %indvars.iv.next17.i, %26 ]
  %18 = getelementptr inbounds nuw float, ptr %6, i64 %indvars.iv16.i
  store float 0.000000e+00, ptr %18, align 4
  br label %19

19:                                               ; preds = %19, %17
  %indvars.iv.i = phi i64 [ 0, %17 ], [ %indvars.iv.next.i, %19 ]
  %20 = phi float [ 0.000000e+00, %17 ], [ %25, %19 ]
  %21 = getelementptr inbounds nuw [3 x [3 x float]], ptr %16, i64 0, i64 %indvars.iv16.i, i64 %indvars.iv.i
  %22 = load float, ptr %21, align 4
  %23 = getelementptr inbounds nuw float, ptr %3, i64 %indvars.iv.i
  %24 = load float, ptr %23, align 4
  %25 = call float @llvm.fmuladd.f32(float %22, float %24, float %20)
  store float %25, ptr %18, align 4
  %indvars.iv.next.i = add nuw nsw i64 %indvars.iv.i, 1
  %exitcond.not.i = icmp eq i64 %indvars.iv.next.i, 3
  br i1 %exitcond.not.i, label %26, label %19, !llvm.loop !7

26:                                               ; preds = %19
  %indvars.iv.next17.i = add nuw nsw i64 %indvars.iv16.i, 1
  %exitcond19.not.i = icmp eq i64 %indvars.iv.next17.i, 3
  br i1 %exitcond19.not.i, label %AdjustSensorOrientation.exit, label %17, !llvm.loop !8

AdjustSensorOrientation.exit:                     ; preds = %26
  %27 = load ptr, ptr %.028, align 8
  call void @SDL_SendJoystickSensor(i64 noundef %0, ptr noundef %27, i32 noundef 1, i64 noundef %2, ptr noundef nonnull %6, i32 noundef 3) #10
  call void @llvm.lifetime.end.p0(i64 12, ptr nonnull %6) #10
  %.pre = load ptr, ptr %.028, align 8
  br label %28

28:                                               ; preds = %AdjustSensorOrientation.exit, %11, %.lr.ph
  %29 = phi ptr [ %.pre, %AdjustSensorOrientation.exit ], [ %8, %11 ], [ %8, %.lr.ph ]
  %30 = getelementptr inbounds nuw i8, ptr %29, i64 264
  %31 = load ptr, ptr %30, align 8
  %.not18 = icmp eq ptr %31, null
  br i1 %.not18, label %49, label %32

32:                                               ; preds = %28
  %33 = getelementptr inbounds nuw i8, ptr %29, i64 256
  %34 = load i32, ptr %33, align 8
  %35 = icmp eq i32 %34, %1
  br i1 %35, label %36, label %49

36:                                               ; preds = %32
  call void @llvm.lifetime.start.p0(i64 12, ptr nonnull %7) #10
  call void @SDL_AssertJoysticksLocked() #10
  %37 = getelementptr inbounds nuw i8, ptr %29, i64 272
  br label %38

38:                                               ; preds = %47, %36
  %indvars.iv16.i19 = phi i64 [ 0, %36 ], [ %indvars.iv.next17.i23, %47 ]
  %39 = getelementptr inbounds nuw float, ptr %7, i64 %indvars.iv16.i19
  store float 0.000000e+00, ptr %39, align 4
  br label %40

40:                                               ; preds = %40, %38
  %indvars.iv.i20 = phi i64 [ 0, %38 ], [ %indvars.iv.next.i21, %40 ]
  %41 = phi float [ 0.000000e+00, %38 ], [ %46, %40 ]
  %42 = getelementptr inbounds nuw [3 x [3 x float]], ptr %37, i64 0, i64 %indvars.iv16.i19, i64 %indvars.iv.i20
  %43 = load float, ptr %42, align 4
  %44 = getelementptr inbounds nuw float, ptr %3, i64 %indvars.iv.i20
  %45 = load float, ptr %44, align 4
  %46 = call float @llvm.fmuladd.f32(float %43, float %45, float %41)
  store float %46, ptr %39, align 4
  %indvars.iv.next.i21 = add nuw nsw i64 %indvars.iv.i20, 1
  %exitcond.not.i22 = icmp eq i64 %indvars.iv.next.i21, 3
  br i1 %exitcond.not.i22, label %47, label %40, !llvm.loop !7

47:                                               ; preds = %40
  %indvars.iv.next17.i23 = add nuw nsw i64 %indvars.iv16.i19, 1
  %exitcond19.not.i24 = icmp eq i64 %indvars.iv.next17.i23, 3
  br i1 %exitcond19.not.i24, label %AdjustSensorOrientation.exit25, label %38, !llvm.loop !8

AdjustSensorOrientation.exit25:                   ; preds = %47
  %48 = load ptr, ptr %.028, align 8
  call void @SDL_SendJoystickSensor(i64 noundef %0, ptr noundef %48, i32 noundef 2, i64 noundef %2, ptr noundef nonnull %7, i32 noundef 3) #10
  call void @llvm.lifetime.end.p0(i64 12, ptr nonnull %7) #10
  br label %49

49:                                               ; preds = %28, %32, %AdjustSensorOrientation.exit25
  %50 = getelementptr inbounds nuw i8, ptr %.028, i64 80
  %.0 = load ptr, ptr %50, align 8
  %.not = icmp eq ptr %.0, null
  br i1 %.not, label %._crit_edge, label %.lr.ph, !llvm.loop !9

._crit_edge:                                      ; preds = %49, %5
  call void @SDL_UnlockJoysticks_REAL() #10
  ret void
}